Certificate:
    Data:
        Version: 3 (0x2)
        Serial Number: 0 (0x0)
        Signature Algorithm: ecdsa-with-SHA256
        Issuer: C=IT, ST=Rome, L=Rome, O=ABGN_SECURITY, OU=APS_2023, CN=CA_ABGN
        Validity
            Not Before: Jun  3 12:10:36 2023 GMT
            Not After : Jun  2 12:10:36 2024 GMT
        Subject: C=IT, L=Fisciano, O=UNISA, CN=localhost/emailAddress=ABGN@unisa.it
        Subject Public Key Info:
            Public Key Algorithm: id-ecPublicKey
                Public-Key: (256 bit)
                pub:
                    04:aa:1c:a9:00:ba:4f:75:ca:14:e0:c4:eb:a8:59:
                    88:2d:51:d1:12:66:99:72:fd:5a:7e:53:94:41:f2:
                    f5:36:34:f7:03:f8:e0:06:b1:3f:84:0e:c1:4d:e5:
                    bd:c0:6b:cc:bd:dd:0c:53:52:1c:7a:77:5f:ca:99:
                    1f:aa:b0:50:26
                ASN1 OID: prime256v1
                NIST CURVE: P-256
        X509v3 extensions:
            X509v3 Subject Alternative Name: 
                DNS:localhost
            X509v3 Subject Key Identifier: 
                A2:CF:EE:26:2B:B9:DB:A3:0D:7B:9B:B9:B5:86:D7:1E:6B:59:9A:11
            X509v3 Authority Key Identifier: 
                52:42:21:77:C5:42:CB:39:60:69:B0:E5:46:37:E7:92:40:7C:58:B6
    Signature Algorithm: ecdsa-with-SHA256
    Signature Value:
        30:44:02:20:70:8e:4e:4a:d7:c2:b7:e4:2b:c5:80:cc:bf:ae:
        b5:3e:6a:bb:3d:da:91:ab:1a:5a:e2:1f:35:b9:dd:ee:f1:3e:
        02:20:33:e0:7d:79:14:68:fd:8b:90:32:b6:5c:19:e6:1c:b9:
        d0:51:31:ab:6c:96:ef:41:26:33:0e:2a:f3:8c:78:8f
-----BEGIN CERTIFICATE-----
MIICEDCCAbegAwIBAgIBADAKBggqhkjOPQQDAjBoMQswCQYDVQQGEwJJVDENMAsG
A1UECAwEUm9tZTENMAsGA1UEBwwEUm9tZTEWMBQGA1UECgwNQUJHTl9TRUNVUklU
WTERMA8GA1UECwwIQVBTXzIwMjMxEDAOBgNVBAMMB0NBX0FCR04wHhcNMjMwNjAz
MTIxMDM2WhcNMjQwNjAyMTIxMDM2WjBiMQswCQYDVQQGEwJJVDERMA8GA1UEBwwI
RmlzY2lhbm8xDjAMBgNVBAoMBVVOSVNBMRIwEAYDVQQDDAlsb2NhbGhvc3QxHDAa
BgkqhkiG9w0BCQEWDUFCR05AdW5pc2EuaXQwWTATBgcqhkjOPQIBBggqhkjOPQMB
BwNCAASqHKkAuk91yhTgxOuoWYgtUdESZply/Vp+U5RB8vU2NPcD+OAGsT+EDsFN
5b3Aa8y93QxTUhx6d1/KmR+qsFAmo1gwVjAUBgNVHREEDTALgglsb2NhbGhvc3Qw
HQYDVR0OBBYEFKLP7iYrudujDXububWG1x5rWZoRMB8GA1UdIwQYMBaAFFJCIXfF
Qss5YGmw5UY355JAfFi2MAoGCCqGSM49BAMCA0cAMEQCIHCOTkrXwrfkK8WAzL+u
tT5quz3akasaWuIfNbnd7vE+AiAz4H15FGj9i5AytlwZ5hy50FExq2yW70EmMw4q
84x4jw==
-----END CERTIFICATE-----
